; Function Attrs: mustprogress null_pointer_is_valid sspstrong uwtable
define void @_ZN18FollowStreamDialog7addTextE7QStringbjb(ptr noundef readonly align 8 captures(none) dereferenceable_or_null(452) %0, ptr noundef captures(none) %1, i1 noundef zeroext %2, i32 noundef %3, i1 noundef zeroext %4) local_unnamed_addr #2 align 2 personality ptr @__gxx_personality_v0 {
  %6 = alloca %class.QString, align 8
  %7 = getelementptr inbounds nuw i8, ptr %0, i64 72
  %8 = load ptr, ptr %7, align 8
  %9 = tail call noundef zeroext i1 @_ZNK11CaptureFile7isValidEv(ptr noundef align 8 dereferenceable_or_null(48) %8)
  br i1 %9, label %10, label %_ZNK11CaptureFile7capFileEv.exit

10:                                               ; preds = %5
  %11 = getelementptr inbounds nuw i8, ptr %8, i64 16
  %12 = load ptr, ptr %11, align 8
  br label %_ZNK11CaptureFile7capFileEv.exit

_ZNK11CaptureFile7capFileEv.exit:                 ; preds = %5, %10
  %13 = phi ptr [ %12, %10 ], [ null, %5 ]
  %14 = getelementptr inbounds nuw i8, ptr %13, i64 256
  %15 = load ptr, ptr %14, align 8
  %16 = tail call ptr @frame_data_sequence_find(ptr noundef %15, i32 noundef %3)
  %.not = icmp eq ptr %16, null
  br i1 %.not, label %21, label %17

17:                                               ; preds = %_ZNK11CaptureFile7capFileEv.exit
  %18 = getelementptr inbounds nuw i8, ptr %16, i64 57
  %19 = load i16, ptr %18, align 1
  %20 = and i16 %19, 16
  %.not10 = icmp ne i16 %20, 0
  br label %21

21:                                               ; preds = %17, %_ZNK11CaptureFile7capFileEv.exit
  %.0 = phi i1 [ false, %_ZNK11CaptureFile7capFileEv.exit ], [ %.not10, %17 ]
  %22 = getelementptr inbounds nuw i8, ptr %0, i64 144
  %23 = load ptr, ptr %22, align 8
  %24 = getelementptr inbounds nuw i8, ptr %23, i64 8
  %25 = load ptr, ptr %24, align 8
  %26 = load ptr, ptr %1, align 8
  store ptr %26, ptr %6, align 8
  store ptr null, ptr %1, align 8
  %27 = getelementptr inbounds nuw i8, ptr %6, i64 8
  %28 = getelementptr inbounds nuw i8, ptr %1, i64 8
  %29 = load ptr, ptr %28, align 8
  store ptr %29, ptr %27, align 8
  store ptr null, ptr %28, align 8
  %30 = getelementptr inbounds nuw i8, ptr %6, i64 16
  %31 = getelementptr inbounds nuw i8, ptr %1, i64 16
  %32 = load i64, ptr %31, align 8
  store i64 %32, ptr %30, align 8
  store i64 0, ptr %31, align 8
  invoke void @_ZN16FollowStreamText7addTextE7QStringbjbb(ptr noundef align 8 dereferenceable_or_null(72) %25, ptr noundef nonnull %6, i1 noundef zeroext %2, i32 noundef %3, i1 noundef zeroext %4, i1 noundef zeroext %.0)
          to label %33 unwind label %38

33:                                               ; preds = %21
  %34 = load ptr, ptr %6, align 8
  %.not.i.i.i = icmp eq ptr %34, null
  br i1 %.not.i.i.i, label %_ZN7QStringD2Ev.exit, label %_ZN17QArrayDataPointerIDsE5derefEv.exit.i.i

_ZN17QArrayDataPointerIDsE5derefEv.exit.i.i:      ; preds = %33
  %35 = atomicrmw sub ptr %34, i32 1 seq_cst, align 4
  %.not.i.i = icmp eq i32 %35, 1
  br i1 %.not.i.i, label %36, label %_ZN7QStringD2Ev.exit

36:                                               ; preds = %_ZN17QArrayDataPointerIDsE5derefEv.exit.i.i
  %37 = load ptr, ptr %6, align 8
  call void @_ZN10QArrayData10deallocateEPS_xx(ptr noundef %37, i64 noundef 2, i64 noundef 8) #29
  br label %_ZN7QStringD2Ev.exit

_ZN7QStringD2Ev.exit:                             ; preds = %33, %_ZN17QArrayDataPointerIDsE5derefEv.exit.i.i, %36
  ret void

38:                                               ; preds = %21
  %39 = landingpad { ptr, i32 }
          cleanup
  %40 = load ptr, ptr %6, align 8
  %.not.i.i.i11 = icmp eq ptr %40, null
  br i1 %.not.i.i.i11, label %_ZN7QStringD2Ev.exit14, label %_ZN17QArrayDataPointerIDsE5derefEv.exit.i.i12

_ZN17QArrayDataPointerIDsE5derefEv.exit.i.i12:    ; preds = %38
  %41 = atomicrmw sub ptr %40, i32 1 seq_cst, align 4
  %.not.i.i13 = icmp eq i32 %41, 1
  br i1 %.not.i.i13, label %42, label %_ZN7QStringD2Ev.exit14

42:                                               ; preds = %_ZN17QArrayDataPointerIDsE5derefEv.exit.i.i12
  %43 = load ptr, ptr %6, align 8
  call void @_ZN10QArrayData10deallocateEPS_xx(ptr noundef %43, i64 noundef 2, i64 noundef 8) #29
  br label %_ZN7QStringD2Ev.exit14

_ZN7QStringD2Ev.exit14:                           ; preds = %38, %_ZN17QArrayDataPointerIDsE5derefEv.exit.i.i12, %42
  resume { ptr, i32 } %39
}